Certificate:
    Data:
        Version: 3 (0x2)
        Serial Number: 3 (0x3)
    Signature Algorithm: sha256WithRSAEncryption
        Issuer: CN=openvpn
        Validity
            Not Before: Apr 17 14:23:21 2018 GMT
            Not After : Apr 14 14:23:21 2028 GMT
        Subject: CN=get_client_config
        Subject Public Key Info:
            Public Key Algorithm: rsaEncryption
                Public-Key: (4096 bit)
                Modulus:
                    00:b0:1b:8b:8f:ca:69:e9:d8:a8:59:09:85:dc:54:
                    54:37:5a:93:ab:1a:b2:fe:f5:8e:0b:a4:e8:3f:d8:
                    d2:a5:fa:62:69:2f:26:8e:68:45:04:2c:5e:01:8b:
                    88:33:6a:53:02:b3:ff:48:2a:c0:5b:78:4c:8d:44:
                    b2:d7:08:76:27:6d:e7:8f:e6:16:c6:f9:08:e5:3d:
                    b3:46:de:b7:40:47:01:f9:66:28:72:a5:62:ed:6b:
                    67:e5:c3:ef:17:e6:97:22:9c:8d:cd:32:42:0b:8e:
                    63:4a:75:12:77:66:06:3e:00:5e:5e:a7:07:58:f5:
                    de:aa:7e:b7:50:5e:39:15:e5:77:18:82:e5:76:c1:
                    5d:bd:86:c5:32:5f:3a:fa:3d:46:d4:9a:75:7f:cf:
                    c9:c6:0b:bb:f3:d7:b2:43:cd:84:5f:84:98:8c:6b:
                    83:45:9e:b6:02:a7:0b:e4:55:65:12:3e:52:7b:f6:
                    42:ff:ad:ce:70:73:b4:ab:48:94:85:b0:c3:7d:29:
                    70:40:40:00:91:2d:c8:0d:bc:71:7e:9f:7e:bc:98:
                    6c:01:a5:0e:b2:89:4c:ab:ec:93:4f:fb:29:9a:01:
                    f1:f8:ad:3e:b5:bd:ff:3b:2e:bb:e5:78:42:6f:cf:
                    26:cd:90:ac:e3:4d:41:2b:12:f9:83:12:9d:a8:d0:
                    c6:13:63:49:6a:8d:2e:03:9c:14:70:88:64:c2:76:
                    da:b6:1e:26:bd:a7:fe:58:9b:6c:b4:c4:b5:27:8d:
                    69:3e:e5:64:8f:df:10:09:44:3e:c6:3f:3d:64:70:
                    f8:27:56:cc:bd:2a:7b:ca:65:08:37:15:44:6b:67:
                    da:5c:c2:4e:04:cf:3f:62:bc:4a:af:88:03:89:d7:
                    6d:76:ce:d4:6d:24:cf:8a:f9:99:07:ff:15:1e:6e:
                    62:1f:28:50:aa:3f:74:d8:fb:2a:77:cb:9b:78:c9:
                    eb:c6:f8:88:d1:a9:61:ce:21:78:a6:0c:8b:ad:b4:
                    e4:35:e1:46:bf:be:22:94:0c:14:5a:56:5e:e7:4c:
                    3a:51:77:98:2e:cf:81:98:a5:6c:79:a4:88:f1:a2:
                    6e:a9:e6:0e:e4:58:f9:69:fe:bc:d1:80:f8:b0:f8:
                    a1:fd:ca:4d:ad:52:fc:42:33:bc:94:fa:a0:71:0e:
                    ad:27:6b:a0:aa:f5:3b:d3:95:e2:3d:19:f3:49:cf:
                    81:0f:f5:c7:c0:bd:87:a6:54:80:16:18:a5:52:59:
                    da:86:a0:59:e3:16:80:51:3e:fc:52:47:75:ca:0f:
                    4b:59:af:0d:f6:aa:b9:1e:c0:94:7d:45:71:22:a2:
                    51:ad:f8:02:67:a9:33:93:1c:8d:d1:93:22:a4:f7:
                    f2:20:e1
                Exponent: 65537 (0x10001)
        X509v3 extensions:
            X509v3 Basic Constraints: 
                CA:FALSE
            Netscape Cert Type: 
                SSL Client
            X509v3 Subject Key Identifier: 
                9D:FE:C8:02:1D:DC:F0:3F:70:D5:8D:26:A5:64:11:E7:24:FF:BC:4B
            X509v3 Authority Key Identifier: 
                keyid:89:79:EB:28:0F:57:A0:C8:5D:1C:A8:AD:78:68:F5:7D:E0:81:03:96

            X509v3 Issuer Alternative Name: 
                <EMPTY>

    Signature Algorithm: sha256WithRSAEncryption
         6d:ea:ad:b2:17:6a:af:57:b6:f4:be:f7:f2:93:ca:ea:8b:c5:
         77:e2:52:5f:37:0b:a7:c4:73:22:70:7d:d6:d3:1b:e5:99:0d:
         24:6f:db:79:ba:b8:16:dd:b9:33:3a:67:6d:f2:f4:e5:9f:a8:
         4e:31:bd:00:2e:ff:7e:34:92:9e:f2:31:fb:32:01:4a:12:b0:
         5e:42:88:da:98:df:16:73:93:9e:ba:24:bd:9a:31:4d:2b:b7:
         96:33:5c:71:c1:5b:29:5e:47:40:ad:09:3d:6e:6e:7d:43:ac:
         74:52:b7:bd:90:c8:8e:8a:21:3e:61:94:51:b0:39:d0:98:a4:
         68:27:30:94:2d:90:11:22:46:58:9d:55:ae:28:41:60:92:da:
         e0:fd:79:26:b1:f4:8f:13:19:1f:82:cb:24:a6:75:c5:3f:4c:
         65:92:e7:87:4e:a1:35:5f:4e:df:e2:7e:d9:61:ee:32:23:18:
         8e:5f:69:a7:72:b6:46:6a:96:16:1a:7c:66:f8:7d:09:fb:57:
         62:6a:ba:e4:59:e1:ea:fd:3f:7a:d1:24:c5:c8:17:58:8d:82:
         3b:51:1d:98:90:a9:21:3c:a3:07:4f:6f:e4:8b:44:19:ff:0b:
         b6:53:95:50:37:57:5d:cc:8a:1a:b1:c8:7b:cf:b4:f1:b5:50:
         58:3c:64:9c:aa:3c:67:fb:c7:23:a0:21:1b:95:08:7c:1b:bb:
         9e:70:eb:65:8d:10:24:bf:a0:ee:65:53:ed:de:d1:f5:dd:8c:
         c4:9b:38:35:20:d8:fe:14:93:f1:6c:32:d9:24:95:32:2d:79:
         f3:74:2a:54:5a:3d:2f:5a:9b:c9:8b:c6:ab:b8:09:c5:78:a6:
         d4:d1:58:1d:ee:f1:c4:38:1d:f4:7f:18:7b:66:af:c4:ac:ad:
         07:36:25:79:b7:7c:24:a1:c6:b0:91:77:72:22:d8:0a:8e:46:
         c6:3b:39:d5:30:cc:a9:a4:68:e0:89:fe:2b:5d:a3:e6:90:8b:
         fd:3e:d2:8c:34:87:70:55:a3:de:d9:ef:92:67:1f:13:0e:74:
         15:43:d2:04:f6:34:8c:58:05:75:2b:4d:59:8b:39:f5:80:e2:
         5e:1c:e3:d1:ac:8d:39:5d:61:e2:38:ec:19:d6:a2:ab:5d:bd:
         45:69:28:32:4d:ff:88:b8:9c:e5:65:c9:0c:58:ce:bb:d6:77:
         6a:c0:e3:cd:ad:54:0b:59:67:84:ff:57:90:d4:8a:df:b9:82:
         60:51:da:99:a3:16:85:ba:81:b9:64:3c:8a:3b:92:4d:5c:af:
         2f:c9:de:f6:a8:e5:da:d9:3f:62:b2:b0:e5:61:bb:8f:94:fe:
         9d:23:8c:e5:66:07:ca:77
-----BEGIN CERTIFICATE-----
MIIFFDCCAvygAwIBAgIBAzANBgkqhkiG9w0BAQsFADASMRAwDgYDVQQDDAdvcGVu
dnBuMB4XDTE4MDQxNzE0MjMyMVoXDTI4MDQxNDE0MjMyMVowHDEaMBgGA1UEAwwR
Z2V0X2NsaWVudF9jb25maWcwggIiMA0GCSqGSIb3DQEBAQUAA4ICDwAwggIKAoIC
AQCwG4uPymnp2KhZCYXcVFQ3WpOrGrL+9Y4LpOg/2NKl+mJpLyaOaEUELF4Bi4gz
alMCs/9IKsBbeEyNRLLXCHYnbeeP5hbG+QjlPbNG3rdARwH5ZihypWLta2flw+8X
5pcinI3NMkILjmNKdRJ3ZgY+AF5epwdY9d6qfrdQXjkV5XcYguV2wV29hsUyXzr6
PUbUmnV/z8nGC7vz17JDzYRfhJiMa4NFnrYCpwvkVWUSPlJ79kL/rc5wc7SrSJSF
sMN9KXBAQACRLcgNvHF+n368mGwBpQ6yiUyr7JNP+ymaAfH4rT61vf87LrvleEJv
zybNkKzjTUErEvmDEp2o0MYTY0lqjS4DnBRwiGTCdtq2Hia9p/5Ym2y0xLUnjWk+
5WSP3xAJRD7GPz1kcPgnVsy9KnvKZQg3FURrZ9pcwk4Ezz9ivEqviAOJ1212ztRt
JM+K+ZkH/xUebmIfKFCqP3TY+yp3y5t4yevG+IjRqWHOIXimDIuttOQ14Ua/viKU
DBRaVl7nTDpRd5guz4GYpWx5pIjxom6p5g7kWPlp/rzRgPiw+KH9yk2tUvxCM7yU
+qBxDq0na6Cq9TvTleI9GfNJz4EP9cfAvYemVIAWGKVSWdqGoFnjFoBRPvxSR3XK
D0tZrw32qrkewJR9RXEiolGt+AJnqTOTHI3RkyKk9/Ig4QIDAQABo2swaTAJBgNV
HRMEAjAAMBEGCWCGSAGG+EIBAQQEAwIHgDAdBgNVHQ4EFgQUnf7IAh3c8D9w1Y0m
pWQR5yT/vEswHwYDVR0jBBgwFoAUiXnrKA9XoMhdHKiteGj1feCBA5YwCQYDVR0S
BAIwADANBgkqhkiG9w0BAQsFAAOCAgEAbeqtshdqr1e29L738pPK6ovFd+JSXzcL
p8RzInB91tMb5ZkNJG/bebq4Ft25MzpnbfL05Z+oTjG9AC7/fjSSnvIx+zIBShKw
XkKI2pjfFnOTnrokvZoxTSu3ljNcccFbKV5HQK0JPW5ufUOsdFK3vZDIjoohPmGU
UbA50JikaCcwlC2QESJGWJ1VrihBYJLa4P15JrH0jxMZH4LLJKZ1xT9MZZLnh06h
NV9O3+J+2WHuMiMYjl9pp3K2RmqWFhp8Zvh9CftXYmq65Fnh6v0/etEkxcgXWI2C
O1EdmJCpITyjB09v5ItEGf8LtlOVUDdXXcyKGrHIe8+08bVQWDxknKo8Z/vHI6Ah
G5UIfBu7nnDrZY0QJL+g7mVT7d7R9d2MxJs4NSDY/hST8Wwy2SSVMi1583QqVFo9
L1qbyYvGq7gJxXim1NFYHe7xxDgd9H8Ye2avxKytBzYlebd8JKHGsJF3ciLYCo5G
xjs51TDMqaRo4In+K12j5pCL/T7SjDSHcFWj3tnvkmcfEw50FUPSBPY0jFgFdStN
WYs59YDiXhzj0ayNOV1h4jjsGdaiq129RWkoMk3/iLic5WXJDFjOu9Z3asDjza1U
C1lnhP9XkNSK37mCYFHamaMWhbqBuWQ8ijuSTVyvL8ne9qjl2tk/YrKw5WG7j5T+
nSOM5WYHync=
-----END CERTIFICATE-----
